; Function Attrs: nounwind uwtable
define range(i32 -2147483647, -2147483648) i32 @Abc_ObjReverseLevelNew(ptr noundef readonly captures(none) %0) local_unnamed_addr #3 {
  %2 = getelementptr i8, ptr %0, i64 44
  %.val11 = load i32, ptr %2, align 4
  %3 = icmp sgt i32 %.val11, 0
  br i1 %3, label %.lr.ph, label %.critedge

.lr.ph:                                           ; preds = %1
  %4 = getelementptr i8, ptr %0, i64 48
  br label %5

5:                                                ; preds = %.lr.ph, %5
  %indvars.iv = phi i64 [ 0, %.lr.ph ], [ %indvars.iv.next, %5 ]
  %.013 = phi i32 [ 0, %.lr.ph ], [ %29, %5 ]
  %.val9 = load ptr, ptr %0, align 8
  %.val10 = load ptr, ptr %4, align 8
  %6 = getelementptr i8, ptr %.val9, i64 32
  %.val9.val = load ptr, ptr %6, align 8
  %7 = getelementptr i8, ptr %.val9.val, i64 8
  %.val9.val.val = load ptr, ptr %7, align 8
  %8 = getelementptr inbounds nuw i32, ptr %.val10, i64 %indvars.iv
  %9 = load i32, ptr %8, align 4
  %10 = sext i32 %9 to i64
  %11 = getelementptr inbounds ptr, ptr %.val9.val.val, i64 %10
  %12 = load ptr, ptr %11, align 8
  %13 = load ptr, ptr %12, align 8
  %14 = getelementptr inbounds nuw i8, ptr %13, i64 288
  %15 = load ptr, ptr %14, align 8
  %16 = getelementptr inbounds nuw i8, ptr %12, i64 16
  %17 = load i32, ptr %16, align 8
  %18 = add nsw i32 %17, 1
  tail call fastcc void @Vec_IntFillExtra(ptr noundef %15, i32 noundef %18)
  %19 = load ptr, ptr %14, align 8
  %20 = load i32, ptr %16, align 8
  %21 = getelementptr i8, ptr %19, i64 8
  %.val.i = load ptr, ptr %21, align 8
  %22 = sext i32 %20 to i64
  %23 = getelementptr inbounds i32, ptr %.val.i, i64 %22
  %24 = load i32, ptr %23, align 4
  %25 = sitofp i32 %.013 to float
  %26 = sitofp i32 %24 to float
  %27 = fcmp ogt float %25, %26
  %28 = select i1 %27, float %25, float %26
  %29 = fptosi float %28 to i32
  %indvars.iv.next = add nuw nsw i64 %indvars.iv, 1
  %.val = load i32, ptr %2, align 4
  %30 = sext i32 %.val to i64
  %31 = icmp slt i64 %indvars.iv.next, %30
  br i1 %31, label %5, label %.critedge.loopexit, !llvm.loop !48

.critedge.loopexit:                               ; preds = %5
  %32 = add nsw i32 %29, 1
  br label %.critedge

.critedge:                                        ; preds = %.critedge.loopexit, %1
  %.0.lcssa = phi i32 [ 1, %1 ], [ %32, %.critedge.loopexit ]
  ret i32 %.0.lcssa
}